; Function Attrs: mustprogress uwtable
define noundef i32 @unorm2_spanQuickCheckYes_75(ptr noundef %norm2, ptr noundef %s, i32 noundef %length, ptr noundef %pErrorCode) local_unnamed_addr #4 personality ptr @__gxx_personality_v0 {
entry:
  %sString = alloca %"class.icu_75::UnicodeString", align 8
  %agg.tmp = alloca %"class.icu_75::ConstChar16Ptr", align 8
  %0 = load i32, ptr %pErrorCode, align 4
  %cmp.i = icmp slt i32 %0, 1
  br i1 %cmp.i, label %if.end, label %return

if.end:                                           ; preds = %entry
  %cmp = icmp eq ptr %s, null
  %cmp1 = icmp ne i32 %length, 0
  %or.cond = and i1 %cmp, %cmp1
  %cmp2 = icmp slt i32 %length, -1
  %or.cond1 = or i1 %cmp2, %or.cond
  br i1 %or.cond1, label %if.then3, label %if.end4

if.then3:                                         ; preds = %if.end
  store i32 1, ptr %pErrorCode, align 4
  br label %return

if.end4:                                          ; preds = %if.end
  %length.lobit = lshr i32 %length, 31
  %conv = trunc i32 %length.lobit to i8
  store ptr %s, ptr %agg.tmp, align 8
  invoke void @_ZN6icu_7513UnicodeStringC1EaNS_14ConstChar16PtrEi(ptr noundef nonnull align 8 dereferenceable(64) %sString, i8 noundef signext %conv, ptr noundef nonnull %agg.tmp, i32 noundef %length)
          to label %invoke.cont unwind label %lpad

invoke.cont:                                      ; preds = %if.end4
  %1 = load ptr, ptr %agg.tmp, align 8
  call void asm sideeffect "", "rm,~{memory},~{dirflag},~{fpsr},~{flags}"(ptr %1) #13, !srcloc !7
  %vtable = load ptr, ptr %norm2, align 8
  %vfn = getelementptr inbounds i8, ptr %vtable, i64 112
  %2 = load ptr, ptr %vfn, align 8
  %call8 = invoke noundef i32 %2(ptr noundef nonnull align 8 dereferenceable(8) %norm2, ptr noundef nonnull align 8 dereferenceable(64) %sString, ptr noundef nonnull align 4 dereferenceable(4) %pErrorCode)
          to label %invoke.cont7 unwind label %lpad6

invoke.cont7:                                     ; preds = %invoke.cont
  call void @_ZN6icu_7513UnicodeStringD1Ev(ptr noundef nonnull align 8 dereferenceable(64) %sString) #13
  br label %return

lpad:                                             ; preds = %if.end4
  %3 = landingpad { ptr, i32 }
          cleanup
  %4 = load ptr, ptr %agg.tmp, align 8
  call void asm sideeffect "", "rm,~{memory},~{dirflag},~{fpsr},~{flags}"(ptr %4) #13, !srcloc !7
  br label %eh.resume

lpad6:                                            ; preds = %invoke.cont
  %5 = landingpad { ptr, i32 }
          cleanup
  call void @_ZN6icu_7513UnicodeStringD1Ev(ptr noundef nonnull align 8 dereferenceable(64) %sString) #13
  br label %eh.resume

return:                                           ; preds = %entry, %invoke.cont7, %if.then3
  %retval.0 = phi i32 [ 0, %if.then3 ], [ %call8, %invoke.cont7 ], [ 0, %entry ]
  ret i32 %retval.0

eh.resume:                                        ; preds = %lpad6, %lpad
  %.pn = phi { ptr, i32 } [ %5, %lpad6 ], [ %3, %lpad ]
  resume { ptr, i32 } %.pn
}